target datalayout = "e-m:e-p270:32:32-p271:32:32-p272:64:64-i64:64-i128:128-f80:128-n8:16:32:64-S128"
target triple = "x86_64-pc-linux-gnu"

@.str.42 = private unnamed_addr constant [17 x i8] c"CVodeGetNumSteps\00", align 1
@.str.43 = private unnamed_addr constant [18 x i8] c"CVodeGetLastOrder\00", align 1
@.str.44 = private unnamed_addr constant [17 x i8] c"CVodeGetLastStep\00", align 1
@.str.45 = private unnamed_addr constant [23 x i8] c"%8.3e %2d  %8.3e %5ld\0A\00", align 1
@.str.46 = private unnamed_addr constant [48 x i8] c"                                Solution       \00", align 1
@.str.47 = private unnamed_addr constant [16 x i8] c"%12.4e %12.4e \0A\00", align 1
@.str.48 = private unnamed_addr constant [48 x i8] c"                                               \00", align 1
@stderr = external global ptr, align 8
@.str.78 = private unnamed_addr constant [55 x i8] c"\0ASUNDIALS_ERROR: %s() failed - returned NULL pointer\0A\0A\00", align 1
@.str.79 = private unnamed_addr constant [48 x i8] c"\0ASUNDIALS_ERROR: %s() failed with retval = %d\0A\0A\00", align 1
@.str.80 = private unnamed_addr constant [53 x i8] c"\0AMEMORY_ERROR: %s() failed - returned NULL pointer\0A\0A\00", align 1

; Function Attrs: nounwind uwtable
define internal i32 @check_retval(ptr noundef %0, ptr noundef %1, i32 noundef %2) #0 {
  %4 = alloca i32, align 4
  %5 = alloca ptr, align 8
  %6 = alloca ptr, align 8
  %7 = alloca i32, align 4
  %8 = alloca ptr, align 8
  %9 = alloca i32, align 4
  store ptr %0, ptr %5, align 8, !tbaa !19
  store ptr %1, ptr %6, align 8, !tbaa !30
  store i32 %2, ptr %7, align 4, !tbaa !4
  call void @llvm.lifetime.start.p0(i64 8, ptr %8) #8
  %10 = load i32, ptr %7, align 4, !tbaa !4
  %11 = icmp eq i32 %10, 0
  br i1 %11, label %12, label %19

12:                                               ; preds = %3
  %13 = load ptr, ptr %5, align 8, !tbaa !19
  %14 = icmp eq ptr %13, null
  br i1 %14, label %15, label %19

15:                                               ; preds = %12
  %16 = load ptr, ptr @stderr, align 8, !tbaa !36
  %17 = load ptr, ptr %6, align 8, !tbaa !30
  %18 = call i32 (ptr, ptr, ...) @fprintf(ptr noundef %16, ptr noundef @.str.78, ptr noundef %17) #8
  store i32 1, ptr %4, align 4
  store i32 1, ptr %9, align 4
  br label %47

19:                                               ; preds = %12, %3
  %20 = load i32, ptr %7, align 4, !tbaa !4
  %21 = icmp eq i32 %20, 1
  br i1 %21, label %22, label %34

22:                                               ; preds = %19
  %23 = load ptr, ptr %5, align 8, !tbaa !19
  store ptr %23, ptr %8, align 8, !tbaa !13
  %24 = load ptr, ptr %8, align 8, !tbaa !13
  %25 = load i32, ptr %24, align 4, !tbaa !4
  %26 = icmp slt i32 %25, 0
  br i1 %26, label %27, label %33

27:                                               ; preds = %22
  %28 = load ptr, ptr @stderr, align 8, !tbaa !36
  %29 = load ptr, ptr %6, align 8, !tbaa !30
  %30 = load ptr, ptr %8, align 8, !tbaa !13
  %31 = load i32, ptr %30, align 4, !tbaa !4
  %32 = call i32 (ptr, ptr, ...) @fprintf(ptr noundef %28, ptr noundef @.str.79, ptr noundef %29, i32 noundef %31) #8
  store i32 1, ptr %4, align 4
  store i32 1, ptr %9, align 4
  br label %47

33:                                               ; preds = %22
  br label %45

34:                                               ; preds = %19
  %35 = load i32, ptr %7, align 4, !tbaa !4
  %36 = icmp eq i32 %35, 2
  br i1 %36, label %37, label %44

37:                                               ; preds = %34
  %38 = load ptr, ptr %5, align 8, !tbaa !19
  %39 = icmp eq ptr %38, null
  br i1 %39, label %40, label %44

40:                                               ; preds = %37
  %41 = load ptr, ptr @stderr, align 8, !tbaa !36
  %42 = load ptr, ptr %6, align 8, !tbaa !30
  %43 = call i32 (ptr, ptr, ...) @fprintf(ptr noundef %41, ptr noundef @.str.80, ptr noundef %42) #8
  store i32 1, ptr %4, align 4
  store i32 1, ptr %9, align 4
  br label %47

44:                                               ; preds = %37, %34
  br label %45

45:                                               ; preds = %44, %33
  br label %46

46:                                               ; preds = %45
  store i32 0, ptr %4, align 4
  store i32 1, ptr %9, align 4
  br label %47

47:                                               ; preds = %46, %40, %27, %15
  call void @llvm.lifetime.end.p0(i64 8, ptr %8) #8
  %48 = load i32, ptr %4, align 4
  ret i32 %48
}

; Function Attrs: nounwind uwtable
define internal void @PrintOutput(ptr noundef %0, double noundef %1, ptr noundef %2) #0 {
  %4 = alloca ptr, align 8
  %5 = alloca double, align 8
  %6 = alloca ptr, align 8
  %7 = alloca i64, align 8
  %8 = alloca i32, align 4
  %9 = alloca i32, align 4
  %10 = alloca double, align 8
  %11 = alloca ptr, align 8
  store ptr %0, ptr %4, align 8, !tbaa !19
  store double %1, ptr %5, align 8, !tbaa !28
  store ptr %2, ptr %6, align 8, !tbaa !17
  call void @llvm.lifetime.start.p0(i64 8, ptr %7) #8
  call void @llvm.lifetime.start.p0(i64 4, ptr %8) #8
  call void @llvm.lifetime.start.p0(i64 4, ptr %9) #8
  call void @llvm.lifetime.start.p0(i64 8, ptr %10) #8
  call void @llvm.lifetime.start.p0(i64 8, ptr %11) #8
  %12 = load ptr, ptr %6, align 8, !tbaa !17
  %13 = call ptr @N_VGetArrayPointer(ptr noundef %12)
  store ptr %13, ptr %11, align 8, !tbaa !11
  %14 = load ptr, ptr %4, align 8, !tbaa !19
  %15 = call i32 @CVodeGetNumSteps(ptr noundef %14, ptr noundef %7)
  store i32 %15, ptr %9, align 4, !tbaa !4
  %16 = call i32 @check_retval(ptr noundef %9, ptr noundef @.str.42, i32 noundef 1)
  %17 = load ptr, ptr %4, align 8, !tbaa !19
  %18 = call i32 @CVodeGetLastOrder(ptr noundef %17, ptr noundef %8)
  store i32 %18, ptr %9, align 4, !tbaa !4
  %19 = call i32 @check_retval(ptr noundef %9, ptr noundef @.str.43, i32 noundef 1)
  %20 = load ptr, ptr %4, align 8, !tbaa !19
  %21 = call i32 @CVodeGetLastStep(ptr noundef %20, ptr noundef %10)
  store i32 %21, ptr %9, align 4, !tbaa !4
  %22 = call i32 @check_retval(ptr noundef %9, ptr noundef @.str.44, i32 noundef 1)
  %23 = load double, ptr %5, align 8, !tbaa !28
  %24 = load i32, ptr %8, align 4, !tbaa !4
  %25 = load double, ptr %10, align 8, !tbaa !28
  %26 = load i64, ptr %7, align 8, !tbaa !47
  %27 = call i32 (ptr, ...) @printf(ptr noundef @.str.45, double noundef %23, i32 noundef %24, double noundef %25, i64 noundef %26)
  %28 = call i32 (ptr, ...) @printf(ptr noundef @.str.46)
  %29 = load ptr, ptr %11, align 8, !tbaa !11
  %30 = getelementptr inbounds double, ptr %29, i64 0
  %31 = load double, ptr %30, align 8, !tbaa !28
  %32 = load ptr, ptr %11, align 8, !tbaa !11
  %33 = getelementptr inbounds double, ptr %32, i64 448
  %34 = load double, ptr %33, align 8, !tbaa !28
  %35 = call i32 (ptr, ...) @printf(ptr noundef @.str.47, double noundef %31, double noundef %34)
  %36 = call i32 (ptr, ...) @printf(ptr noundef @.str.48)
  %37 = load ptr, ptr %11, align 8, !tbaa !11
  %38 = getelementptr inbounds double, ptr %37, i64 1
  %39 = load double, ptr %38, align 8, !tbaa !28
  %40 = load ptr, ptr %11, align 8, !tbaa !11
  %41 = getelementptr inbounds double, ptr %40, i64 449
  %42 = load double, ptr %41, align 8, !tbaa !28
  %43 = call i32 (ptr, ...) @printf(ptr noundef @.str.47, double noundef %39, double noundef %42)
  call void @llvm.lifetime.end.p0(i64 8, ptr %11) #8
  call void @llvm.lifetime.end.p0(i64 8, ptr %10) #8
  call void @llvm.lifetime.end.p0(i64 4, ptr %9) #8
  call void @llvm.lifetime.end.p0(i64 4, ptr %8) #8
  call void @llvm.lifetime.end.p0(i64 8, ptr %7) #8
  ret void
}