; Function Attrs: nounwind uwtable
define internal fastcc void @PrintOutput(ptr noundef %0, double noundef %1, ptr noundef %2) unnamed_addr #0 {
  %4 = alloca i64, align 8
  %5 = alloca i32, align 4
  %6 = alloca double, align 8
  call void @llvm.lifetime.start.p0(i64 8, ptr nonnull %4) #11
  call void @llvm.lifetime.start.p0(i64 4, ptr nonnull %5) #11
  call void @llvm.lifetime.start.p0(i64 8, ptr nonnull %6) #11
  %7 = tail call ptr @N_VGetArrayPointer(ptr noundef %2) #11
  %8 = call i32 @CVodeGetNumSteps(ptr noundef %0, ptr noundef nonnull %4) #11
  %9 = icmp slt i32 %8, 0
  br i1 %9, label %10, label %check_retval.exit

10:                                               ; preds = %3
  %11 = load ptr, ptr @stderr, align 8, !tbaa !25
  %12 = call i32 (ptr, ptr, ...) @fprintf(ptr noundef %11, ptr noundef nonnull @.str.79, ptr noundef nonnull @.str.42, i32 noundef %8) #15
  br label %check_retval.exit

check_retval.exit:                                ; preds = %3, %10
  %13 = call i32 @CVodeGetLastOrder(ptr noundef %0, ptr noundef nonnull %5) #11
  %14 = icmp slt i32 %13, 0
  br i1 %14, label %15, label %check_retval.exit10

15:                                               ; preds = %check_retval.exit
  %16 = load ptr, ptr @stderr, align 8, !tbaa !25
  %17 = call i32 (ptr, ptr, ...) @fprintf(ptr noundef %16, ptr noundef nonnull @.str.79, ptr noundef nonnull @.str.43, i32 noundef %13) #15
  br label %check_retval.exit10

check_retval.exit10:                              ; preds = %check_retval.exit, %15
  %18 = call i32 @CVodeGetLastStep(ptr noundef %0, ptr noundef nonnull %6) #11
  %19 = icmp slt i32 %18, 0
  br i1 %19, label %20, label %check_retval.exit12

20:                                               ; preds = %check_retval.exit10
  %21 = load ptr, ptr @stderr, align 8, !tbaa !25
  %22 = call i32 (ptr, ptr, ...) @fprintf(ptr noundef %21, ptr noundef nonnull @.str.79, ptr noundef nonnull @.str.44, i32 noundef %18) #15
  br label %check_retval.exit12

check_retval.exit12:                              ; preds = %check_retval.exit10, %20
  %23 = load i32, ptr %5, align 4, !tbaa !29
  %24 = load double, ptr %6, align 8, !tbaa !24
  %25 = load i64, ptr %4, align 8, !tbaa !35
  %26 = call i32 (ptr, ...) @printf(ptr noundef nonnull dereferenceable(1) @.str.45, double noundef %1, i32 noundef %23, double noundef %24, i64 noundef %25)
  %27 = call i32 (ptr, ...) @printf(ptr noundef nonnull dereferenceable(1) @.str.46)
  %28 = load double, ptr %7, align 8, !tbaa !24
  %29 = getelementptr inbounds nuw i8, ptr %7, i64 3584
  %30 = load double, ptr %29, align 8, !tbaa !24
  %31 = call i32 (ptr, ...) @printf(ptr noundef nonnull dereferenceable(1) @.str.47, double noundef %28, double noundef %30)
  %32 = call i32 (ptr, ...) @printf(ptr noundef nonnull dereferenceable(1) @.str.48)
  %33 = getelementptr inbounds nuw i8, ptr %7, i64 8
  %34 = load double, ptr %33, align 8, !tbaa !24
  %35 = getelementptr inbounds nuw i8, ptr %7, i64 3592
  %36 = load double, ptr %35, align 8, !tbaa !24
  %37 = call i32 (ptr, ...) @printf(ptr noundef nonnull dereferenceable(1) @.str.47, double noundef %34, double noundef %36)
  call void @llvm.lifetime.end.p0(i64 8, ptr nonnull %6) #11
  call void @llvm.lifetime.end.p0(i64 4, ptr nonnull %5) #11
  call void @llvm.lifetime.end.p0(i64 8, ptr nonnull %4) #11
  ret void
}